target datalayout = "e-m:e-p270:32:32-p271:32:32-p272:64:64-i64:64-i128:128-f80:128-n8:16:32:64-S128"
target triple = "x86_64-pc-linux-gnu"

%class.QString = type { %struct.QArrayDataPointer }
%struct.QArrayDataPointer = type { ptr, ptr, i64 }
%class.QVariant = type { %"struct.QVariant::Private" }
%"struct.QVariant::Private" = type { %union.anon, i64 }
%union.anon = type { ptr, [16 x i8] }
%class.QFont = type <{ %class.QExplicitlySharedDataPointer, i32, [4 x i8] }>
%class.QExplicitlySharedDataPointer = type { ptr }
%class.QPen = type { ptr }
%class.QBrush = type { %"class.std::unique_ptr" }
%"class.std::unique_ptr" = type { %"struct.std::__uniq_ptr_data" }
%"struct.std::__uniq_ptr_data" = type { %"class.std::__uniq_ptr_impl" }
%"class.std::__uniq_ptr_impl" = type { %"class.std::tuple" }
%"class.std::tuple" = type { %"struct.std::_Tuple_impl" }
%"struct.std::_Tuple_impl" = type { %"struct.std::_Head_base.1" }
%"struct.std::_Head_base.1" = type { ptr }
%class.QColor = type <{ i32, %"union.QColor::CT", [2 x i8] }>
%"union.QColor::CT" = type { %struct.anon }
%struct.anon = type { i16, i16, i16, i16, i16 }
%class.QPixmap = type { %class.QPaintDevice.base, %class.QExplicitlySharedDataPointer.43 }
%class.QPaintDevice.base = type <{ ptr, i16 }>
%class.QExplicitlySharedDataPointer.43 = type { ptr }
%class.TCPStreamDialog = type { %class.GeometryStateDialog, ptr, ptr, %class.QMultiMap, double, i8, %class.QMap, double, i8, %struct.tcp_graph, ptr, %class.QString, ptr, ptr, ptr, ptr, ptr, ptr, ptr, ptr, ptr, ptr, ptr, ptr, ptr, ptr, %class.QRectF, i32, [4 x i8], %class.QTransform, i8, ptr, %class.QPoint, %class.QMenu, %"class.TCPStreamDialog::GraphUpdater", i32, i32, i32, double }
%class.GeometryStateDialog = type { %class.QDialog, %class.QString }
%class.QDialog = type { %class.QWidget }
%class.QWidget = type { %class.QObject, %class.QPaintDevice.base, ptr }
%class.QObject = type { ptr, %class.QScopedPointer }
%class.QScopedPointer = type { ptr }
%class.QMultiMap = type { %"class.QtPrivate::QExplicitlySharedDataPointerV2" }
%"class.QtPrivate::QExplicitlySharedDataPointerV2" = type { ptr }
%class.QMap = type { %"class.QtPrivate::QExplicitlySharedDataPointerV2.5" }
%"class.QtPrivate::QExplicitlySharedDataPointerV2.5" = type { ptr }
%struct.tcp_graph = type { i32, %struct._address, i16, %struct._address, i16, i32, ptr }
%struct._address = type { i32, i32, ptr, ptr }
%class.QRectF = type { double, double, double, double }
%class.QTransform = type <{ [3 x [3 x double]], i16, [6 x i8] }>
%class.QPoint = type { i32, i32 }
%class.QMenu = type { %class.QWidget }
%"class.TCPStreamDialog::GraphUpdater" = type <{ ptr, ptr, i8, [7 x i8] }>
%class.Ui_TCPStreamDialog = type { ptr, ptr, ptr, ptr, ptr, ptr, ptr, ptr, ptr, ptr, ptr, ptr, ptr, ptr, ptr, ptr, ptr, ptr, ptr, ptr, ptr, ptr, ptr, ptr, ptr, ptr, ptr, ptr, ptr, ptr, ptr, ptr, ptr, ptr, ptr, ptr, ptr, ptr, ptr, ptr, ptr, ptr, ptr, ptr, ptr, ptr, ptr, ptr, ptr, ptr, ptr, ptr, ptr, ptr, ptr, ptr, ptr }
%class.QCustomPlot = type <{ %class.QWidget, ptr, ptr, ptr, ptr, ptr, %class.QRect, double, ptr, i8, [7 x i8], %class.QList.26, %class.QList.30, %class.QList.34, %class.QList.38, %class.QFlags.25, %class.QFlags.25, %class.QFlags.42, i32, i8, [7 x i8], %class.QBrush, %class.QPixmap, %class.QPixmap, i8, [3 x i8], i32, ptr, %class.QFlags.44, i32, i32, [4 x i8], ptr, i8, [7 x i8], %class.QList.45, %class.QPoint, i8, [7 x i8], %class.QPointer, %class.QPointer, %class.QVariant, %class.QVariant, i8, i8, [6 x i8], double, double, i32, %class.QFlags.25, i8, [7 x i8] }>
%class.QRect = type { i32, i32, i32, i32 }
%class.QList.26 = type { %struct.QArrayDataPointer.29 }
%struct.QArrayDataPointer.29 = type { ptr, ptr, i64 }
%class.QList.30 = type { %struct.QArrayDataPointer.33 }
%struct.QArrayDataPointer.33 = type { ptr, ptr, i64 }
%class.QList.34 = type { %struct.QArrayDataPointer.37 }
%struct.QArrayDataPointer.37 = type { ptr, ptr, i64 }
%class.QList.38 = type { %struct.QArrayDataPointer.41 }
%struct.QArrayDataPointer.41 = type { ptr, ptr, i64 }
%class.QFlags.42 = type { i32 }
%class.QFlags.44 = type { i32 }
%class.QList.45 = type { %struct.QArrayDataPointer.48 }
%struct.QArrayDataPointer.48 = type { ptr, ptr, i64 }
%class.QPointer = type { %class.QWeakPointer }
%class.QWeakPointer = type { ptr, ptr }
%class.QFlags.25 = type { i32 }
%class.QCPAxis = type { %class.QCPLayerable.base, i32, ptr, i32, i32, %class.QFlags.15, %class.QFlags.15, %class.QPen, %class.QPen, %class.QString, %class.QFont, %class.QFont, %class.QColor, %class.QColor, i8, [7 x i8], %class.QFont, %class.QFont, %class.QColor, %class.QColor, i32, %struct.QLatin1Char, i8, i8, i8, %class.QPen, %class.QPen, %class.QPen, %class.QPen, %class.QCPRange, i8, i32, ptr, ptr, %class.QSharedPointer.16, %class.QList.17, %class.QList.21, %class.QList.17, i8, i32, i8, %class.QCPRange, %class.QFlags.25, %class.QFlags.25 }
%class.QCPLayerable.base = type <{ %class.QObject, i8, [7 x i8], ptr, %class.QPointer, ptr, i8 }>
%class.QFlags.15 = type { i32 }
%struct.QLatin1Char = type { i8 }
%class.QSharedPointer.16 = type { ptr, ptr }
%class.QList.21 = type { %struct.QArrayDataPointer.24 }
%struct.QArrayDataPointer.24 = type { ptr, ptr, i64 }
%class.QList.17 = type { %struct.QArrayDataPointer.20 }
%struct.QArrayDataPointer.20 = type { ptr, ptr, i64 }
%class.QCPRange = type { double, double }

; Function Attrs: mustprogress nounwind uwtable
define linkonce_odr noundef double @_ZNK8QCPRange6centerEv(ptr noundef nonnull align 8 dereferenceable(16) %0) #2 comdat align 2 {
  %2 = alloca ptr, align 8
  store ptr %0, ptr %2, align 8
  %3 = load ptr, ptr %2, align 8
  %4 = getelementptr inbounds %class.QCPRange, ptr %3, i32 0, i32 1
  %5 = load double, ptr %4, align 8
  %6 = getelementptr inbounds %class.QCPRange, ptr %3, i32 0, i32 0
  %7 = load double, ptr %6, align 8
  %8 = fadd double %5, %7
  %9 = fmul double %8, 5.000000e-01
  ret double %9
}

; Function Attrs: mustprogress nounwind uwtable
define linkonce_odr { double, double } @_ZNK7QCPAxis5rangeEv(ptr noundef nonnull align 8 dereferenceable(472) %0) #2 comdat align 2 {
  %2 = alloca %class.QCPRange, align 8
  %3 = alloca ptr, align 8
  store ptr %0, ptr %3, align 8
  %4 = load ptr, ptr %3, align 8
  %5 = getelementptr inbounds %class.QCPAxis, ptr %4, i32 0, i32 29
  call void @llvm.memcpy.p0.p0.i64(ptr align 8 %2, ptr align 8 %5, i64 16, i1 false)
  %6 = load { double, double }, ptr %2, align 8
  ret { double, double } %6
}

; Function Attrs: mustprogress uwtable
define void @_ZN15TCPStreamDialog9zoomYAxisEb(ptr noundef nonnull align 8 dereferenceable(584) %0, i1 noundef zeroext %1) #1 align 2 {
  %3 = alloca ptr, align 8
  %4 = alloca i8, align 1
  %5 = alloca ptr, align 8
  %6 = alloca double, align 8
  %7 = alloca %class.QCPRange, align 8
  store ptr %0, ptr %3, align 8
  %8 = zext i1 %1 to i8
  store i8 %8, ptr %4, align 1
  %9 = load ptr, ptr %3, align 8
  %10 = getelementptr inbounds %class.TCPStreamDialog, ptr %9, i32 0, i32 1
  %11 = load ptr, ptr %10, align 8
  %12 = getelementptr inbounds %class.Ui_TCPStreamDialog, ptr %11, i32 0, i32 29
  %13 = load ptr, ptr %12, align 8
  store ptr %13, ptr %5, align 8
  %14 = load ptr, ptr %5, align 8
  %15 = call noundef ptr @_ZNK11QCustomPlot8axisRectEi(ptr noundef nonnull align 8 dereferenceable(513) %14, i32 noundef 0)
  %16 = call noundef double @_ZN11QCPAxisRect15rangeZoomFactorEN2Qt11OrientationE(ptr noundef nonnull align 8 dereferenceable(432) %15, i32 noundef 2)
  store double %16, ptr %6, align 8
  %17 = load i8, ptr %4, align 1
  %18 = trunc i8 %17 to i1
  br i1 %18, label %22, label %19

19:                                               ; preds = %2
  %20 = load double, ptr %6, align 8
  %21 = call double @pow(double noundef %20, double noundef -1.000000e+00) #3
  store double %21, ptr %6, align 8
  br label %22

22:                                               ; preds = %19, %2
  %23 = load ptr, ptr %5, align 8
  %24 = getelementptr inbounds %class.QCustomPlot, ptr %23, i32 0, i32 2
  %25 = load ptr, ptr %24, align 8
  %26 = load double, ptr %6, align 8
  %27 = load ptr, ptr %5, align 8
  %28 = getelementptr inbounds %class.QCustomPlot, ptr %27, i32 0, i32 2
  %29 = load ptr, ptr %28, align 8
  %30 = call { double, double } @_ZNK7QCPAxis5rangeEv(ptr noundef nonnull align 8 dereferenceable(472) %29)
  %31 = getelementptr inbounds { double, double }, ptr %7, i32 0, i32 0
  %32 = extractvalue { double, double } %30, 0
  store double %32, ptr %31, align 8
  %33 = getelementptr inbounds { double, double }, ptr %7, i32 0, i32 1
  %34 = extractvalue { double, double } %30, 1
  store double %34, ptr %33, align 8
  %35 = call noundef double @_ZNK8QCPRange6centerEv(ptr noundef nonnull align 8 dereferenceable(16) %7)
  call void @_ZN7QCPAxis10scaleRangeEdd(ptr noundef nonnull align 8 dereferenceable(472) %25, double noundef %26, double noundef %35)
  %36 = load ptr, ptr %5, align 8
  call void @_ZN11QCustomPlot6replotENS_15RefreshPriorityE(ptr noundef nonnull align 8 dereferenceable(513) %36, i32 noundef 2)
  ret void
}