; Function Attrs: mustprogress uwtable
define void @_ZN15TCPStreamDialog9zoomYAxisEb(ptr nocapture noundef nonnull readonly align 8 dereferenceable(584) %0, i1 noundef zeroext %1) local_unnamed_addr #2 align 2 {
  %3 = getelementptr inbounds i8, ptr %0, i64 64
  %4 = load ptr, ptr %3, align 8
  %5 = getelementptr inbounds i8, ptr %4, i64 232
  %6 = load ptr, ptr %5, align 8
  %7 = tail call noundef ptr @_ZNK11QCustomPlot8axisRectEi(ptr noundef nonnull align 8 dereferenceable(513) %6, i32 noundef 0)
  %8 = tail call noundef double @_ZN11QCPAxisRect15rangeZoomFactorEN2Qt11OrientationE(ptr noundef nonnull align 8 dereferenceable(432) %7, i32 noundef 2)
  %reciprocal = fdiv double 1.000000e+00, %8
  %.0 = select i1 %1, double %8, double %reciprocal
  %9 = getelementptr inbounds i8, ptr %6, i64 48
  %10 = load ptr, ptr %9, align 8
  %11 = getelementptr inbounds i8, ptr %10, i64 304
  %.sroa.0.0.copyload.i = load double, ptr %11, align 8
  %.sroa.2.0..sroa_idx.i = getelementptr inbounds i8, ptr %10, i64 312
  %.sroa.2.0.copyload.i = load double, ptr %.sroa.2.0..sroa_idx.i, align 8
  %12 = fadd double %.sroa.0.0.copyload.i, %.sroa.2.0.copyload.i
  %13 = fmul double %12, 5.000000e-01
  tail call void @_ZN7QCPAxis10scaleRangeEdd(ptr noundef nonnull align 8 dereferenceable(472) %10, double noundef %.0, double noundef %13)
  tail call void @_ZN11QCustomPlot6replotENS_15RefreshPriorityE(ptr noundef nonnull align 8 dereferenceable(513) %6, i32 noundef 2)
  ret void
}